; Function Attrs: mustprogress nofree norecurse nosync nounwind willreturn memory(argmem: readwrite) uwtable
define void @stbrp_setup_heuristic(ptr noundef captures(none) %0, i32 noundef %1) local_unnamed_addr #0 {
  %3 = getelementptr inbounds nuw i8, ptr %0, i64 12
  %4 = load i32, ptr %3, align 4, !tbaa !3
  %cond = icmp eq i32 %4, 1
  br i1 %cond, label %5, label %7

5:                                                ; preds = %2
  %6 = getelementptr inbounds nuw i8, ptr %0, i64 16
  store i32 %1, ptr %6, align 8, !tbaa !10
  br label %7

7:                                                ; preds = %2, %5
  ret void
}